; ModuleID = '56/1878.c'
source_filename = "56/1878.c"
target datalayout = "e-m:e-p270:32:32-p271:32:32-p272:64:64-i64:64-f80:128-n8:16:32:64-S128"
target triple = "x86_64-pc-linux-gnu"

@.str = private unnamed_addr constant [3 x i8] c"%d\00", align 1
@.str.1 = private unnamed_addr constant [12 x i8] c"%d%d%d%d%d\0A\00", align 1
@.str.2 = private unnamed_addr constant [10 x i8] c"%d%d%d%d\0A\00", align 1
@.str.3 = private unnamed_addr constant [8 x i8] c"%d%d%d\0A\00", align 1
@.str.4 = private unnamed_addr constant [6 x i8] c"%d%d\0A\00", align 1
@.str.5 = private unnamed_addr constant [4 x i8] c"%d\0A\00", align 1

; Function Attrs: noinline nounwind uwtable
define dso_local void @main() #0 {
  %1 = alloca i32, align 4
  %2 = alloca i32, align 4
  %3 = alloca i32, align 4
  %4 = alloca i32, align 4
  %5 = alloca i32, align 4
  %6 = alloca i32, align 4
  %7 = call i32 (i8*, ...) @__isoc99_scanf(i8* getelementptr inbounds ([3 x i8], [3 x i8]* @.str, i64 0, i64 0), i32* %1)
  %8 = load i32, i32* %1, align 4
  %9 = sdiv i32 %8, 10000
  store i32 %9, i32* %2, align 4
  %10 = load i32, i32* %1, align 4
  %11 = srem i32 %10, 10000
  %12 = sdiv i32 %11, 1000
  store i32 %12, i32* %3, align 4
  %13 = load i32, i32* %1, align 4
  %14 = srem i32 %13, 1000
  %15 = sdiv i32 %14, 100
  store i32 %15, i32* %4, align 4
  %16 = load i32, i32* %1, align 4
  %17 = srem i32 %16, 100
  %18 = sdiv i32 %17, 10
  store i32 %18, i32* %5, align 4
  %19 = load i32, i32* %1, align 4
  %20 = srem i32 %19, 10
  store i32 %20, i32* %6, align 4
  %21 = load i32, i32* %2, align 4
  %22 = icmp ne i32 %21, 0
  br i1 %22, label %23, label %30

23:                                               ; preds = %0
  %24 = load i32, i32* %6, align 4
  %25 = load i32, i32* %5, align 4
  %26 = load i32, i32* %4, align 4
  %27 = load i32, i32* %3, align 4
  %28 = load i32, i32* %2, align 4
  %29 = call i32 (i8*, ...) @printf(i8* getelementptr inbounds ([12 x i8], [12 x i8]* @.str.1, i64 0, i64 0), i32 %24, i32 %25, i32 %26, i32 %27, i32 %28)
  br label %60

30:                                               ; preds = %0
  %31 = load i32, i32* %3, align 4
  %32 = icmp ne i32 %31, 0
  br i1 %32, label %33, label %39

33:                                               ; preds = %30
  %34 = load i32, i32* %6, align 4
  %35 = load i32, i32* %5, align 4
  %36 = load i32, i32* %4, align 4
  %37 = load i32, i32* %3, align 4
  %38 = call i32 (i8*, ...) @printf(i8* getelementptr inbounds ([10 x i8], [10 x i8]* @.str.2, i64 0, i64 0), i32 %34, i32 %35, i32 %36, i32 %37)
  br label %59

39:                                               ; preds = %30
  %40 = load i32, i32* %4, align 4
  %41 = icmp ne i32 %40, 0
  br i1 %41, label %42, label %47

42:                                               ; preds = %39
  %43 = load i32, i32* %6, align 4
  %44 = load i32, i32* %5, align 4
  %45 = load i32, i32* %4, align 4
  %46 = call i32 (i8*, ...) @printf(i8* getelementptr inbounds ([8 x i8], [8 x i8]* @.str.3, i64 0, i64 0), i32 %43, i32 %44, i32 %45)
  br label %58

47:                                               ; preds = %39
  %48 = load i32, i32* %5, align 4
  %49 = icmp ne i32 %48, 0
  br i1 %49, label %50, label %54

50:                                               ; preds = %47
  %51 = load i32, i32* %6, align 4
  %52 = load i32, i32* %5, align 4
  %53 = call i32 (i8*, ...) @printf(i8* getelementptr inbounds ([6 x i8], [6 x i8]* @.str.4, i64 0, i64 0), i32 %51, i32 %52)
  br label %57

54:                                               ; preds = %47
  %55 = load i32, i32* %6, align 4
  %56 = call i32 (i8*, ...) @printf(i8* getelementptr inbounds ([4 x i8], [4 x i8]* @.str.5, i64 0, i64 0), i32 %55)
  br label %57

57:                                               ; preds = %54, %50
  br label %58

58:                                               ; preds = %57, %42
  br label %59

59:                                               ; preds = %58, %33
  br label %60

60:                                               ; preds = %59, %23
  ret void
}

declare dso_local i32 @__isoc99_scanf(i8*, ...) #1

declare dso_local i32 @printf(i8*, ...) #1


!llvm.module.flags = !{!0}
!llvm.ident = !{!1}

!0 = !{i32 1, !"wchar_size", i32 4}
!1 = !{!"clang version 10.0.0-4ubuntu1 "}
